target datalayout = "e-m:e-p270:32:32-p271:32:32-p272:64:64-i64:64-f80:128-n8:16:32:64-S128"
target triple = "x86_64-pc-linux-gnu"

@.str = private unnamed_addr constant [3 x i8] c"%d\00", align 1
@.str.1 = private unnamed_addr constant [4 x i8] c"%d \00", align 1
@.str.2 = private unnamed_addr constant [4 x i8] c"%d\0A\00", align 1

; Function Attrs: noinline nounwind uwtable
define dso_local i32 @main() #0 {
  %1 = alloca i32, align 4
  %2 = alloca [11 x [11 x [5 x i32]]], align 16
  %3 = alloca i32, align 4
  %4 = alloca i32, align 4
  %5 = alloca i32, align 4
  %6 = alloca i32, align 4
  store i32 0, i32* %1, align 4
  %7 = bitcast [11 x [11 x [5 x i32]]]* %2 to i8*
  call void @llvm.memset.p0i8.i64(i8* align 16 %7, i8 0, i64 2420, i1 false)
  %8 = getelementptr inbounds [11 x [11 x [5 x i32]]], [11 x [11 x [5 x i32]]]* %2, i64 0, i64 5
  %9 = getelementptr inbounds [11 x [5 x i32]], [11 x [5 x i32]]* %8, i64 0, i64 5
  %10 = getelementptr inbounds [5 x i32], [5 x i32]* %9, i64 0, i64 0
  %11 = call i32 (i8*, ...) @__isoc99_scanf(i8* getelementptr inbounds ([3 x i8], [3 x i8]* @.str, i64 0, i64 0), i32* %10)
  %12 = call i32 (i8*, ...) @__isoc99_scanf(i8* getelementptr inbounds ([3 x i8], [3 x i8]* @.str, i64 0, i64 0), i32* %3)
  store i32 0, i32* %6, align 4
  br label %13

13:                                               ; preds = %166, %0
  %14 = load i32, i32* %6, align 4
  %15 = load i32, i32* %3, align 4
  %16 = icmp slt i32 %14, %15
  br i1 %16, label %17, label %169

17:                                               ; preds = %13
  store i32 1, i32* %4, align 4
  br label %18

18:                                               ; preds = %162, %17
  %19 = load i32, i32* %4, align 4
  %20 = icmp slt i32 %19, 10
  br i1 %20, label %21, label %165

21:                                               ; preds = %18
  store i32 1, i32* %5, align 4
  br label %22

22:                                               ; preds = %158, %21
  %23 = load i32, i32* %5, align 4
  %24 = icmp slt i32 %23, 10
  br i1 %24, label %25, label %161

25:                                               ; preds = %22
  %26 = load i32, i32* %4, align 4
  %27 = sext i32 %26 to i64
  %28 = getelementptr inbounds [11 x [11 x [5 x i32]]], [11 x [11 x [5 x i32]]]* %2, i64 0, i64 %27
  %29 = load i32, i32* %5, align 4
  %30 = sext i32 %29 to i64
  %31 = getelementptr inbounds [11 x [5 x i32]], [11 x [5 x i32]]* %28, i64 0, i64 %30
  %32 = load i32, i32* %6, align 4
  %33 = sext i32 %32 to i64
  %34 = getelementptr inbounds [5 x i32], [5 x i32]* %31, i64 0, i64 %33
  %35 = load i32, i32* %34, align 4
  %36 = mul nsw i32 2, %35
  %37 = load i32, i32* %4, align 4
  %38 = sext i32 %37 to i64
  %39 = getelementptr inbounds [11 x [11 x [5 x i32]]], [11 x [11 x [5 x i32]]]* %2, i64 0, i64 %38
  %40 = load i32, i32* %5, align 4
  %41 = sext i32 %40 to i64
  %42 = getelementptr inbounds [11 x [5 x i32]], [11 x [5 x i32]]* %39, i64 0, i64 %41
  %43 = load i32, i32* %6, align 4
  %44 = add nsw i32 %43, 1
  %45 = sext i32 %44 to i64
  %46 = getelementptr inbounds [5 x i32], [5 x i32]* %42, i64 0, i64 %45
  store i32 %36, i32* %46, align 4
  %47 = load i32, i32* %4, align 4
  %48 = sub nsw i32 %47, 1
  %49 = sext i32 %48 to i64
  %50 = getelementptr inbounds [11 x [11 x [5 x i32]]], [11 x [11 x [5 x i32]]]* %2, i64 0, i64 %49
  %51 = load i32, i32* %5, align 4
  %52 = sext i32 %51 to i64
  %53 = getelementptr inbounds [11 x [5 x i32]], [11 x [5 x i32]]* %50, i64 0, i64 %52
  %54 = load i32, i32* %6, align 4
  %55 = sext i32 %54 to i64
  %56 = getelementptr inbounds [5 x i32], [5 x i32]* %53, i64 0, i64 %55
  %57 = load i32, i32* %56, align 4
  %58 = load i32, i32* %4, align 4
  %59 = sext i32 %58 to i64
  %60 = getelementptr inbounds [11 x [11 x [5 x i32]]], [11 x [11 x [5 x i32]]]* %2, i64 0, i64 %59
  %61 = load i32, i32* %5, align 4
  %62 = sub nsw i32 %61, 1
  %63 = sext i32 %62 to i64
  %64 = getelementptr inbounds [11 x [5 x i32]], [11 x [5 x i32]]* %60, i64 0, i64 %63
  %65 = load i32, i32* %6, align 4
  %66 = sext i32 %65 to i64
  %67 = getelementptr inbounds [5 x i32], [5 x i32]* %64, i64 0, i64 %66
  %68 = load i32, i32* %67, align 4
  %69 = add nsw i32 %57, %68
  %70 = load i32, i32* %4, align 4
  %71 = add nsw i32 %70, 1
  %72 = sext i32 %71 to i64
  %73 = getelementptr inbounds [11 x [11 x [5 x i32]]], [11 x [11 x [5 x i32]]]* %2, i64 0, i64 %72
  %74 = load i32, i32* %5, align 4
  %75 = sext i32 %74 to i64
  %76 = getelementptr inbounds [11 x [5 x i32]], [11 x [5 x i32]]* %73, i64 0, i64 %75
  %77 = load i32, i32* %6, align 4
  %78 = sext i32 %77 to i64
  %79 = getelementptr inbounds [5 x i32], [5 x i32]* %76, i64 0, i64 %78
  %80 = load i32, i32* %79, align 4
  %81 = add nsw i32 %69, %80
  %82 = load i32, i32* %4, align 4
  %83 = sext i32 %82 to i64
  %84 = getelementptr inbounds [11 x [11 x [5 x i32]]], [11 x [11 x [5 x i32]]]* %2, i64 0, i64 %83
  %85 = load i32, i32* %5, align 4
  %86 = add nsw i32 %85, 1
  %87 = sext i32 %86 to i64
  %88 = getelementptr inbounds [11 x [5 x i32]], [11 x [5 x i32]]* %84, i64 0, i64 %87
  %89 = load i32, i32* %6, align 4
  %90 = sext i32 %89 to i64
  %91 = getelementptr inbounds [5 x i32], [5 x i32]* %88, i64 0, i64 %90
  %92 = load i32, i32* %91, align 4
  %93 = add nsw i32 %81, %92
  %94 = load i32, i32* %4, align 4
  %95 = add nsw i32 %94, 1
  %96 = sext i32 %95 to i64
  %97 = getelementptr inbounds [11 x [11 x [5 x i32]]], [11 x [11 x [5 x i32]]]* %2, i64 0, i64 %96
  %98 = load i32, i32* %5, align 4
  %99 = add nsw i32 %98, 1
  %100 = sext i32 %99 to i64
  %101 = getelementptr inbounds [11 x [5 x i32]], [11 x [5 x i32]]* %97, i64 0, i64 %100
  %102 = load i32, i32* %6, align 4
  %103 = sext i32 %102 to i64
  %104 = getelementptr inbounds [5 x i32], [5 x i32]* %101, i64 0, i64 %103
  %105 = load i32, i32* %104, align 4
  %106 = add nsw i32 %93, %105
  %107 = load i32, i32* %4, align 4
  %108 = sub nsw i32 %107, 1
  %109 = sext i32 %108 to i64
  %110 = getelementptr inbounds [11 x [11 x [5 x i32]]], [11 x [11 x [5 x i32]]]* %2, i64 0, i64 %109
  %111 = load i32, i32* %5, align 4
  %112 = sub nsw i32 %111, 1
  %113 = sext i32 %112 to i64
  %114 = getelementptr inbounds [11 x [5 x i32]], [11 x [5 x i32]]* %110, i64 0, i64 %113
  %115 = load i32, i32* %6, align 4
  %116 = sext i32 %115 to i64
  %117 = getelementptr inbounds [5 x i32], [5 x i32]* %114, i64 0, i64 %116
  %118 = load i32, i32* %117, align 4
  %119 = add nsw i32 %106, %118
  %120 = load i32, i32* %4, align 4
  %121 = add nsw i32 %120, 1
  %122 = sext i32 %121 to i64
  %123 = getelementptr inbounds [11 x [11 x [5 x i32]]], [11 x [11 x [5 x i32]]]* %2, i64 0, i64 %122
  %124 = load i32, i32* %5, align 4
  %125 = sub nsw i32 %124, 1
  %126 = sext i32 %125 to i64
  %127 = getelementptr inbounds [11 x [5 x i32]], [11 x [5 x i32]]* %123, i64 0, i64 %126
  %128 = load i32, i32* %6, align 4
  %129 = sext i32 %128 to i64
  %130 = getelementptr inbounds [5 x i32], [5 x i32]* %127, i64 0, i64 %129
  %131 = load i32, i32* %130, align 4
  %132 = add nsw i32 %119, %131
  %133 = load i32, i32* %4, align 4
  %134 = sub nsw i32 %133, 1
  %135 = sext i32 %134 to i64
  %136 = getelementptr inbounds [11 x [11 x [5 x i32]]], [11 x [11 x [5 x i32]]]* %2, i64 0, i64 %135
  %137 = load i32, i32* %5, align 4
  %138 = add nsw i32 %137, 1
  %139 = sext i32 %138 to i64
  %140 = getelementptr inbounds [11 x [5 x i32]], [11 x [5 x i32]]* %136, i64 0, i64 %139
  %141 = load i32, i32* %6, align 4
  %142 = sext i32 %141 to i64
  %143 = getelementptr inbounds [5 x i32], [5 x i32]* %140, i64 0, i64 %142
  %144 = load i32, i32* %143, align 4
  %145 = add nsw i32 %132, %144
  %146 = load i32, i32* %4, align 4
  %147 = sext i32 %146 to i64
  %148 = getelementptr inbounds [11 x [11 x [5 x i32]]], [11 x [11 x [5 x i32]]]* %2, i64 0, i64 %147
  %149 = load i32, i32* %5, align 4
  %150 = sext i32 %149 to i64
  %151 = getelementptr inbounds [11 x [5 x i32]], [11 x [5 x i32]]* %148, i64 0, i64 %150
  %152 = load i32, i32* %6, align 4
  %153 = add nsw i32 %152, 1
  %154 = sext i32 %153 to i64
  %155 = getelementptr inbounds [5 x i32], [5 x i32]* %151, i64 0, i64 %154
  %156 = load i32, i32* %155, align 4
  %157 = add nsw i32 %156, %145
  store i32 %157, i32* %155, align 4
  br label %158

158:                                              ; preds = %25
  %159 = load i32, i32* %5, align 4
  %160 = add nsw i32 %159, 1
  store i32 %160, i32* %5, align 4
  br label %22

161:                                              ; preds = %22
  br label %162

162:                                              ; preds = %161
  %163 = load i32, i32* %4, align 4
  %164 = add nsw i32 %163, 1
  store i32 %164, i32* %4, align 4
  br label %18

165:                                              ; preds = %18
  br label %166

166:                                              ; preds = %165
  %167 = load i32, i32* %6, align 4
  %168 = add nsw i32 %167, 1
  store i32 %168, i32* %6, align 4
  br label %13

169:                                              ; preds = %13
  store i32 1, i32* %4, align 4
  br label %170

170:                                              ; preds = %202, %169
  %171 = load i32, i32* %4, align 4
  %172 = icmp slt i32 %171, 10
  br i1 %172, label %173, label %205

173:                                              ; preds = %170
  store i32 1, i32* %5, align 4
  br label %174

174:                                              ; preds = %189, %173
  %175 = load i32, i32* %5, align 4
  %176 = icmp slt i32 %175, 9
  br i1 %176, label %177, label %192

177:                                              ; preds = %174
  %178 = load i32, i32* %4, align 4
  %179 = sext i32 %178 to i64
  %180 = getelementptr inbounds [11 x [11 x [5 x i32]]], [11 x [11 x [5 x i32]]]* %2, i64 0, i64 %179
  %181 = load i32, i32* %5, align 4
  %182 = sext i32 %181 to i64
  %183 = getelementptr inbounds [11 x [5 x i32]], [11 x [5 x i32]]* %180, i64 0, i64 %182
  %184 = load i32, i32* %3, align 4
  %185 = sext i32 %184 to i64
  %186 = getelementptr inbounds [5 x i32], [5 x i32]* %183, i64 0, i64 %185
  %187 = load i32, i32* %186, align 4
  %188 = call i32 (i8*, ...) @printf(i8* getelementptr inbounds ([4 x i8], [4 x i8]* @.str.1, i64 0, i64 0), i32 %187)
  br label %189

189:                                              ; preds = %177
  %190 = load i32, i32* %5, align 4
  %191 = add nsw i32 %190, 1
  store i32 %191, i32* %5, align 4
  br label %174

192:                                              ; preds = %174
  %193 = load i32, i32* %4, align 4
  %194 = sext i32 %193 to i64
  %195 = getelementptr inbounds [11 x [11 x [5 x i32]]], [11 x [11 x [5 x i32]]]* %2, i64 0, i64 %194
  %196 = getelementptr inbounds [11 x [5 x i32]], [11 x [5 x i32]]* %195, i64 0, i64 9
  %197 = load i32, i32* %3, align 4
  %198 = sext i32 %197 to i64
  %199 = getelementptr inbounds [5 x i32], [5 x i32]* %196, i64 0, i64 %198
  %200 = load i32, i32* %199, align 4
  %201 = call i32 (i8*, ...) @printf(i8* getelementptr inbounds ([4 x i8], [4 x i8]* @.str.2, i64 0, i64 0), i32 %200)
  br label %202

202:                                              ; preds = %192
  %203 = load i32, i32* %4, align 4
  %204 = add nsw i32 %203, 1
  store i32 %204, i32* %4, align 4
  br label %170

205:                                              ; preds = %170
  ret i32 0
}